target datalayout = "e-m:e-p270:32:32-p271:32:32-p272:64:64-i64:64-i128:128-f80:128-n8:16:32:64-S128"
target triple = "x86_64-pc-linux-gnu"

%"class.cv::ppf_match_3d::Pose3D" = type { ptr, double, double, i64, i64, %"class.cv::Matx.0", double, %"class.cv::Vec", %"class.cv::Vec.2" }
%"class.cv::Matx.0" = type { [16 x double] }
%"class.cv::Vec" = type { %"class.cv::Matx.1" }
%"class.cv::Matx.1" = type { [3 x double] }
%"class.cv::Vec.2" = type { %"class.cv::Matx.3" }
%"class.cv::Matx.3" = type { [4 x double] }
%"class.std::__cxx11::basic_string" = type { %"struct.std::__cxx11::basic_string<char>::_Alloc_hider", i64, %union.anon }
%"struct.std::__cxx11::basic_string<char>::_Alloc_hider" = type { ptr }
%union.anon = type { i64, [8 x i8] }

@.str.1 = private unnamed_addr constant [3 x i8] c"wb\00", align 1

; Function Attrs: noinline noreturn nounwind uwtable
define linkonce_odr hidden void @__clang_call_terminate(ptr noundef %0) #14 comdat {
  %2 = call ptr @__cxa_begin_catch(ptr %0) #3
  call void @_ZSt9terminatev() #22
  unreachable
}

; Function Attrs: mustprogress nounwind uwtable
define available_externally noundef ptr @_ZNKSt7__cxx1112basic_stringIcSt11char_traitsIcESaIcEE7_M_dataEv(ptr noundef nonnull align 8 dereferenceable(32) %0) #12 align 2 {
  %2 = alloca ptr, align 8
  store ptr %0, ptr %2, align 8, !tbaa !50
  %3 = load ptr, ptr %2, align 8
  %4 = getelementptr inbounds nuw %"class.std::__cxx11::basic_string", ptr %3, i32 0, i32 0
  %5 = getelementptr inbounds nuw %"struct.std::__cxx11::basic_string<char>::_Alloc_hider", ptr %4, i32 0, i32 0
  %6 = load ptr, ptr %5, align 8, !tbaa !151
  ret ptr %6
}

; Function Attrs: mustprogress uwtable
define noundef i32 @_ZN2cv12ppf_match_3d6Pose3D9writePoseEP8_IO_FILE(ptr noundef nonnull align 8 dereferenceable(232) %0, ptr noundef %1) #4 align 2 {
  %3 = alloca ptr, align 8
  %4 = alloca ptr, align 8
  %5 = alloca i32, align 4
  store ptr %0, ptr %3, align 8, !tbaa !3
  store ptr %1, ptr %4, align 8, !tbaa !48
  %6 = load ptr, ptr %3, align 8
  call void @llvm.lifetime.start.p0(i64 4, ptr %5) #3
  store i32 7673, ptr %5, align 4, !tbaa !22
  %7 = load ptr, ptr %4, align 8, !tbaa !48
  %8 = call i64 @fwrite(ptr noundef %5, i64 noundef 4, i64 noundef 1, ptr noundef %7)
  %9 = getelementptr inbounds nuw %"class.cv::ppf_match_3d::Pose3D", ptr %6, i32 0, i32 6
  %10 = load ptr, ptr %4, align 8, !tbaa !48
  %11 = call i64 @fwrite(ptr noundef %9, i64 noundef 8, i64 noundef 1, ptr noundef %10)
  %12 = getelementptr inbounds nuw %"class.cv::ppf_match_3d::Pose3D", ptr %6, i32 0, i32 4
  %13 = load ptr, ptr %4, align 8, !tbaa !48
  %14 = call i64 @fwrite(ptr noundef %12, i64 noundef 4, i64 noundef 1, ptr noundef %13)
  %15 = getelementptr inbounds nuw %"class.cv::ppf_match_3d::Pose3D", ptr %6, i32 0, i32 3
  %16 = load ptr, ptr %4, align 8, !tbaa !48
  %17 = call i64 @fwrite(ptr noundef %15, i64 noundef 4, i64 noundef 1, ptr noundef %16)
  %18 = getelementptr inbounds nuw %"class.cv::ppf_match_3d::Pose3D", ptr %6, i32 0, i32 5
  %19 = getelementptr inbounds nuw %"class.cv::Matx.0", ptr %18, i32 0, i32 0
  %20 = getelementptr inbounds [16 x double], ptr %19, i64 0, i64 0
  %21 = load ptr, ptr %4, align 8, !tbaa !48
  %22 = call i64 @fwrite(ptr noundef %20, i64 noundef 128, i64 noundef 1, ptr noundef %21)
  %23 = getelementptr inbounds nuw %"class.cv::ppf_match_3d::Pose3D", ptr %6, i32 0, i32 7
  %24 = getelementptr inbounds nuw %"class.cv::Matx.1", ptr %23, i32 0, i32 0
  %25 = getelementptr inbounds [3 x double], ptr %24, i64 0, i64 0
  %26 = load ptr, ptr %4, align 8, !tbaa !48
  %27 = call i64 @fwrite(ptr noundef %25, i64 noundef 24, i64 noundef 1, ptr noundef %26)
  %28 = getelementptr inbounds nuw %"class.cv::ppf_match_3d::Pose3D", ptr %6, i32 0, i32 8
  %29 = getelementptr inbounds nuw %"class.cv::Matx.3", ptr %28, i32 0, i32 0
  %30 = getelementptr inbounds [4 x double], ptr %29, i64 0, i64 0
  %31 = load ptr, ptr %4, align 8, !tbaa !48
  %32 = call i64 @fwrite(ptr noundef %30, i64 noundef 32, i64 noundef 1, ptr noundef %31)
  %33 = getelementptr inbounds nuw %"class.cv::ppf_match_3d::Pose3D", ptr %6, i32 0, i32 2
  %34 = load ptr, ptr %4, align 8, !tbaa !48
  %35 = call i64 @fwrite(ptr noundef %33, i64 noundef 8, i64 noundef 1, ptr noundef %34)
  call void @llvm.lifetime.end.p0(i64 4, ptr %5) #3
  ret i32 0
}

; Function Attrs: mustprogress nounwind uwtable
define available_externally noundef ptr @_ZNKSt7__cxx1112basic_stringIcSt11char_traitsIcESaIcEE5c_strEv(ptr noundef nonnull align 8 dereferenceable(32) %0) #12 align 2 personality ptr @__gxx_personality_v0 {
  %2 = alloca ptr, align 8
  store ptr %0, ptr %2, align 8, !tbaa !50
  %3 = load ptr, ptr %2, align 8
  %4 = invoke noundef ptr @_ZNKSt7__cxx1112basic_stringIcSt11char_traitsIcESaIcEE7_M_dataEv(ptr noundef nonnull align 8 dereferenceable(32) %3)
          to label %5 unwind label %6

5:                                                ; preds = %1
  ret ptr %4

6:                                                ; preds = %1
  %7 = landingpad { ptr, i32 }
          catch ptr null
  %8 = extractvalue { ptr, i32 } %7, 0
  call void @__clang_call_terminate(ptr %8) #22
  unreachable
}

; Function Attrs: mustprogress uwtable
define noundef i32 @_ZN2cv12ppf_match_3d6Pose3D9writePoseERKNSt7__cxx1112basic_stringIcSt11char_traitsIcESaIcEEE(ptr noundef nonnull align 8 dereferenceable(232) %0, ptr noundef nonnull align 8 dereferenceable(32) %1) #4 align 2 {
  %3 = alloca i32, align 4
  %4 = alloca ptr, align 8
  %5 = alloca ptr, align 8
  %6 = alloca ptr, align 8
  %7 = alloca i32, align 4
  %8 = alloca i32, align 4
  store ptr %0, ptr %4, align 8, !tbaa !3
  store ptr %1, ptr %5, align 8, !tbaa !50
  %9 = load ptr, ptr %4, align 8
  call void @llvm.lifetime.start.p0(i64 8, ptr %6) #3
  %10 = load ptr, ptr %5, align 8, !tbaa !50
  %11 = call noundef ptr @_ZNKSt7__cxx1112basic_stringIcSt11char_traitsIcESaIcEE5c_strEv(ptr noundef nonnull align 8 dereferenceable(32) %10) #3
  %12 = call noalias ptr @fopen(ptr noundef %11, ptr noundef @.str.1)
  store ptr %12, ptr %6, align 8, !tbaa !48
  %13 = load ptr, ptr %6, align 8, !tbaa !48
  %14 = icmp ne ptr %13, null
  br i1 %14, label %16, label %15

15:                                               ; preds = %2
  store i32 -1, ptr %3, align 4
  store i32 1, ptr %7, align 4
  br label %22

16:                                               ; preds = %2
  call void @llvm.lifetime.start.p0(i64 4, ptr %8) #3
  %17 = load ptr, ptr %6, align 8, !tbaa !48
  %18 = call noundef i32 @_ZN2cv12ppf_match_3d6Pose3D9writePoseEP8_IO_FILE(ptr noundef nonnull align 8 dereferenceable(232) %9, ptr noundef %17)
  store i32 %18, ptr %8, align 4, !tbaa !22
  %19 = load ptr, ptr %6, align 8, !tbaa !48
  %20 = call i32 @fclose(ptr noundef %19)
  %21 = load i32, ptr %8, align 4, !tbaa !22
  store i32 %21, ptr %3, align 4
  store i32 1, ptr %7, align 4
  call void @llvm.lifetime.end.p0(i64 4, ptr %8) #3
  br label %22

22:                                               ; preds = %16, %15
  call void @llvm.lifetime.end.p0(i64 8, ptr %6) #3
  %23 = load i32, ptr %3, align 4
  ret i32 %23
}