; Function Attrs: mustprogress nofree nounwind uwtable
define noundef range(i32 -1, 1) i32 @_ZN2cv12ppf_match_3d6Pose3D9writePoseERKNSt7__cxx1112basic_stringIcSt11char_traitsIcESaIcEEE(ptr noundef nonnull align 8 captures(none) dereferenceable(232) %0, ptr noundef nonnull readonly align 8 captures(none) dereferenceable(32) %1) local_unnamed_addr #13 align 2 personality ptr @__gxx_personality_v0 {
  %3 = alloca i32, align 4
  %4 = load ptr, ptr %1, align 8, !tbaa !114
  %5 = tail call noalias ptr @fopen(ptr noundef %4, ptr noundef nonnull @.str.1)
  %.not = icmp eq ptr %5, null
  br i1 %.not, label %23, label %6

6:                                                ; preds = %2
  call void @llvm.lifetime.start.p0(i64 4, ptr nonnull %3) #26
  store i32 7673, ptr %3, align 4, !tbaa !11
  %7 = call i64 @fwrite(ptr noundef nonnull %3, i64 noundef 4, i64 noundef 1, ptr noundef nonnull %5)
  %8 = getelementptr inbounds nuw i8, ptr %0, i64 168
  %9 = tail call i64 @fwrite(ptr noundef nonnull %8, i64 noundef 8, i64 noundef 1, ptr noundef nonnull %5)
  %10 = getelementptr inbounds nuw i8, ptr %0, i64 32
  %11 = tail call i64 @fwrite(ptr noundef nonnull %10, i64 noundef 4, i64 noundef 1, ptr noundef nonnull %5)
  %12 = getelementptr inbounds nuw i8, ptr %0, i64 24
  %13 = tail call i64 @fwrite(ptr noundef nonnull %12, i64 noundef 4, i64 noundef 1, ptr noundef nonnull %5)
  %14 = getelementptr inbounds nuw i8, ptr %0, i64 40
  %15 = tail call i64 @fwrite(ptr noundef nonnull %14, i64 noundef 128, i64 noundef 1, ptr noundef nonnull %5)
  %16 = getelementptr inbounds nuw i8, ptr %0, i64 176
  %17 = tail call i64 @fwrite(ptr noundef nonnull %16, i64 noundef 24, i64 noundef 1, ptr noundef nonnull %5)
  %18 = getelementptr inbounds nuw i8, ptr %0, i64 200
  %19 = tail call i64 @fwrite(ptr noundef nonnull %18, i64 noundef 32, i64 noundef 1, ptr noundef nonnull %5)
  %20 = getelementptr inbounds nuw i8, ptr %0, i64 16
  %21 = tail call i64 @fwrite(ptr noundef nonnull %20, i64 noundef 8, i64 noundef 1, ptr noundef nonnull %5)
  call void @llvm.lifetime.end.p0(i64 4, ptr nonnull %3) #26
  %22 = tail call i32 @fclose(ptr noundef nonnull %5)
  br label %23

23:                                               ; preds = %2, %6
  %.0 = phi i32 [ 0, %6 ], [ -1, %2 ]
  ret i32 %.0
}